; ModuleID = '22/659.c'
source_filename = "22/659.c"
target datalayout = "e-m:e-p270:32:32-p271:32:32-p272:64:64-i64:64-f80:128-n8:16:32:64-S128"
target triple = "x86_64-pc-linux-gnu"

@.str = private unnamed_addr constant [3 x i8] c"%d\00", align 1
@.str.1 = private unnamed_addr constant [4 x i8] c",%d\00", align 1
@.str.2 = private unnamed_addr constant [4 x i8] c"No\0A\00", align 1
@.str.3 = private unnamed_addr constant [4 x i8] c"%d\0A\00", align 1

; Function Attrs: noinline nounwind uwtable
define dso_local void @main() #0 {
  %1 = alloca i32, align 4
  %2 = alloca i32, align 4
  %3 = alloca i32, align 4
  %4 = alloca [300 x i32], align 16
  store i32 1, i32* %1, align 4
  %5 = getelementptr inbounds [300 x i32], [300 x i32]* %4, i64 0, i64 0
  %6 = call i32 (i8*, ...) @__isoc99_scanf(i8* getelementptr inbounds ([3 x i8], [3 x i8]* @.str, i64 0, i64 0), i32* %5)
  br label %7

7:                                                ; preds = %13, %0
  %8 = load i32, i32* %1, align 4
  %9 = sext i32 %8 to i64
  %10 = getelementptr inbounds [300 x i32], [300 x i32]* %4, i64 0, i64 %9
  %11 = call i32 (i8*, ...) @__isoc99_scanf(i8* getelementptr inbounds ([4 x i8], [4 x i8]* @.str.1, i64 0, i64 0), i32* %10)
  %12 = icmp ne i32 %11, 0
  br i1 %12, label %13, label %16

13:                                               ; preds = %7
  %14 = load i32, i32* %1, align 4
  %15 = add nsw i32 %14, 1
  store i32 %15, i32* %1, align 4
  br label %7

16:                                               ; preds = %7
  %17 = load i32, i32* %1, align 4
  store i32 %17, i32* %2, align 4
  %18 = load i32, i32* %2, align 4
  %19 = getelementptr inbounds [300 x i32], [300 x i32]* %4, i64 0, i64 0
  %20 = call i32 @max(i32 %18, i32* %19)
  store i32 %20, i32* %3, align 4
  store i32 0, i32* %1, align 4
  br label %21

21:                                               ; preds = %37, %16
  %22 = load i32, i32* %1, align 4
  %23 = load i32, i32* %2, align 4
  %24 = icmp slt i32 %22, %23
  br i1 %24, label %25, label %40

25:                                               ; preds = %21
  %26 = load i32, i32* %1, align 4
  %27 = sext i32 %26 to i64
  %28 = getelementptr inbounds [300 x i32], [300 x i32]* %4, i64 0, i64 %27
  %29 = load i32, i32* %28, align 4
  %30 = load i32, i32* %3, align 4
  %31 = icmp eq i32 %29, %30
  br i1 %31, label %32, label %36

32:                                               ; preds = %25
  %33 = load i32, i32* %1, align 4
  %34 = sext i32 %33 to i64
  %35 = getelementptr inbounds [300 x i32], [300 x i32]* %4, i64 0, i64 %34
  store i32 -1, i32* %35, align 4
  br label %36

36:                                               ; preds = %32, %25
  br label %37

37:                                               ; preds = %36
  %38 = load i32, i32* %1, align 4
  %39 = add nsw i32 %38, 1
  store i32 %39, i32* %1, align 4
  br label %21

40:                                               ; preds = %21
  %41 = load i32, i32* %2, align 4
  %42 = getelementptr inbounds [300 x i32], [300 x i32]* %4, i64 0, i64 0
  %43 = call i32 @max(i32 %41, i32* %42)
  store i32 %43, i32* %3, align 4
  %44 = load i32, i32* %3, align 4
  %45 = icmp eq i32 %44, -1
  br i1 %45, label %46, label %48

46:                                               ; preds = %40
  %47 = call i32 (i8*, ...) @printf(i8* getelementptr inbounds ([4 x i8], [4 x i8]* @.str.2, i64 0, i64 0))
  br label %51

48:                                               ; preds = %40
  %49 = load i32, i32* %3, align 4
  %50 = call i32 (i8*, ...) @printf(i8* getelementptr inbounds ([4 x i8], [4 x i8]* @.str.3, i64 0, i64 0), i32 %49)
  br label %51

51:                                               ; preds = %48, %46
  ret void
}

declare dso_local i32 @__isoc99_scanf(i8*, ...) #1

; Function Attrs: noinline nounwind uwtable
define dso_local i32 @max(i32 %0, i32* %1) #0 {
  %3 = alloca i32, align 4
  %4 = alloca i32*, align 8
  %5 = alloca i32, align 4
  %6 = alloca i32, align 4
  store i32 %0, i32* %3, align 4
  store i32* %1, i32** %4, align 8
  %7 = load i32*, i32** %4, align 8
  %8 = getelementptr inbounds i32, i32* %7, i64 0
  %9 = load i32, i32* %8, align 4
  store i32 %9, i32* %6, align 4
  store i32 1, i32* %5, align 4
  br label %10

10:                                               ; preds = %29, %2
  %11 = load i32, i32* %5, align 4
  %12 = load i32, i32* %3, align 4
  %13 = icmp slt i32 %11, %12
  br i1 %13, label %14, label %32

14:                                               ; preds = %10
  %15 = load i32, i32* %6, align 4
  %16 = load i32*, i32** %4, align 8
  %17 = load i32, i32* %5, align 4
  %18 = sext i32 %17 to i64
  %19 = getelementptr inbounds i32, i32* %16, i64 %18
  %20 = load i32, i32* %19, align 4
  %21 = icmp slt i32 %15, %20
  br i1 %21, label %22, label %28

22:                                               ; preds = %14
  %23 = load i32*, i32** %4, align 8
  %24 = load i32, i32* %5, align 4
  %25 = sext i32 %24 to i64
  %26 = getelementptr inbounds i32, i32* %23, i64 %25
  %27 = load i32, i32* %26, align 4
  store i32 %27, i32* %6, align 4
  br label %28

28:                                               ; preds = %22, %14
  br label %29

29:                                               ; preds = %28
  %30 = load i32, i32* %5, align 4
  %31 = add nsw i32 %30, 1
  store i32 %31, i32* %5, align 4
  br label %10

32:                                               ; preds = %10
  %33 = load i32, i32* %6, align 4
  ret i32 %33
}

declare dso_local i32 @printf(i8*, ...) #1


!llvm.module.flags = !{!0}
!llvm.ident = !{!1}

!0 = !{i32 1, !"wchar_size", i32 4}
!1 = !{!"clang version 10.0.0-4ubuntu1 "}
